target datalayout = "e-m:e-p270:32:32-p271:32:32-p272:64:64-i64:64-i128:128-f80:128-n8:16:32:64-S128"
target triple = "x86_64-pc-linux-gnu"

%struct.ref_dir = type { i32, i32, i32, ptr, ptr }
%struct.ref_entry = type { i8, %union.anon, [0 x i8] }
%union.anon = type { %struct.ref_value }
%struct.ref_value = type { %struct.object_id, ptr }
%struct.object_id = type { [32 x i8], i32 }

; Function Attrs: nounwind uwtable
define internal void @clear_ref_dir(ptr noundef %0) #0 {
  %2 = alloca ptr, align 8
  %3 = alloca i32, align 4
  store ptr %0, ptr %2, align 8, !tbaa !4
  call void @llvm.lifetime.start.p0(i64 4, ptr %3) #10
  store i32 0, ptr %3, align 4, !tbaa !31
  br label %4

4:                                                ; preds = %18, %1
  %5 = load i32, ptr %3, align 4, !tbaa !31
  %6 = load ptr, ptr %2, align 8, !tbaa !4
  %7 = getelementptr inbounds nuw %struct.ref_dir, ptr %6, i32 0, i32 0
  %8 = load i32, ptr %7, align 8, !tbaa !11
  %9 = icmp slt i32 %5, %8
  br i1 %9, label %10, label %21

10:                                               ; preds = %4
  %11 = load ptr, ptr %2, align 8, !tbaa !4
  %12 = getelementptr inbounds nuw %struct.ref_dir, ptr %11, i32 0, i32 4
  %13 = load ptr, ptr %12, align 8, !tbaa !17
  %14 = load i32, ptr %3, align 4, !tbaa !31
  %15 = sext i32 %14 to i64
  %16 = getelementptr inbounds ptr, ptr %13, i64 %15
  %17 = load ptr, ptr %16, align 8, !tbaa !9
  call void @free_ref_entry(ptr noundef %17)
  br label %18

18:                                               ; preds = %10
  %19 = load i32, ptr %3, align 4, !tbaa !31
  %20 = add nsw i32 %19, 1
  store i32 %20, ptr %3, align 4, !tbaa !31
  br label %4, !llvm.loop !69

21:                                               ; preds = %4
  br label %22

22:                                               ; preds = %21
  %23 = load ptr, ptr %2, align 8, !tbaa !4
  %24 = getelementptr inbounds nuw %struct.ref_dir, ptr %23, i32 0, i32 4
  %25 = load ptr, ptr %24, align 8, !tbaa !17
  call void @free(ptr noundef %25) #10
  %26 = load ptr, ptr %2, align 8, !tbaa !4
  %27 = getelementptr inbounds nuw %struct.ref_dir, ptr %26, i32 0, i32 4
  store ptr null, ptr %27, align 8, !tbaa !17
  br label %28

28:                                               ; preds = %22
  br label %29

29:                                               ; preds = %28
  %30 = load ptr, ptr %2, align 8, !tbaa !4
  %31 = getelementptr inbounds nuw %struct.ref_dir, ptr %30, i32 0, i32 1
  store i32 0, ptr %31, align 4, !tbaa !16
  %32 = load ptr, ptr %2, align 8, !tbaa !4
  %33 = getelementptr inbounds nuw %struct.ref_dir, ptr %32, i32 0, i32 0
  store i32 0, ptr %33, align 8, !tbaa !11
  %34 = load ptr, ptr %2, align 8, !tbaa !4
  %35 = getelementptr inbounds nuw %struct.ref_dir, ptr %34, i32 0, i32 2
  store i32 0, ptr %35, align 8, !tbaa !18
  call void @llvm.lifetime.end.p0(i64 4, ptr %3) #10
  ret void
}

; Function Attrs: nounwind uwtable
define internal void @free_ref_entry(ptr noundef %0) #0 {
  %2 = alloca ptr, align 8
  store ptr %0, ptr %2, align 8, !tbaa !9
  %3 = load ptr, ptr %2, align 8, !tbaa !9
  %4 = getelementptr inbounds nuw %struct.ref_entry, ptr %3, i32 0, i32 0
  %5 = load i8, ptr %4, align 8, !tbaa !21
  %6 = zext i8 %5 to i32
  %7 = and i32 %6, 16
  %8 = icmp ne i32 %7, 0
  br i1 %8, label %9, label %12

9:                                                ; preds = %1
  %10 = load ptr, ptr %2, align 8, !tbaa !9
  %11 = getelementptr inbounds nuw %struct.ref_entry, ptr %10, i32 0, i32 1
  call void @clear_ref_dir(ptr noundef %11)
  br label %17

12:                                               ; preds = %1
  %13 = load ptr, ptr %2, align 8, !tbaa !9
  %14 = getelementptr inbounds nuw %struct.ref_entry, ptr %13, i32 0, i32 1
  %15 = getelementptr inbounds nuw %struct.ref_value, ptr %14, i32 0, i32 1
  %16 = load ptr, ptr %15, align 8, !tbaa !21
  call void @free(ptr noundef %16) #10
  br label %17

17:                                               ; preds = %12, %9
  %18 = load ptr, ptr %2, align 8, !tbaa !9
  call void @free(ptr noundef %18) #10
  ret void
}