; Function Attrs: nounwind uwtable
define internal fastcc void @free_ref_entry(ptr noundef captures(none) %0) unnamed_addr #0 {
  %2 = load i8, ptr %0, align 8, !tbaa !17
  %3 = and i8 %2, 16
  %.not = icmp eq i8 %3, 0
  br i1 %.not, label %clear_ref_dir.exit, label %4

4:                                                ; preds = %1
  %5 = getelementptr inbounds nuw i8, ptr %0, i64 8
  %6 = load i32, ptr %5, align 8, !tbaa !4
  %7 = icmp sgt i32 %6, 0
  br i1 %7, label %.lr.ph, label %clear_ref_dir.exit

.lr.ph:                                           ; preds = %4
  %8 = getelementptr inbounds nuw i8, ptr %0, i64 32
  br label %9

9:                                                ; preds = %.lr.ph, %9
  %indvars.iv = phi i64 [ 0, %.lr.ph ], [ %indvars.iv.next, %9 ]
  %10 = load ptr, ptr %8, align 8, !tbaa !13
  %11 = getelementptr inbounds nuw ptr, ptr %10, i64 %indvars.iv
  %12 = load ptr, ptr %11, align 8, !tbaa !14
  tail call fastcc void @free_ref_entry(ptr noundef %12)
  %indvars.iv.next = add nuw nsw i64 %indvars.iv, 1
  %13 = load i32, ptr %5, align 8, !tbaa !4
  %14 = sext i32 %13 to i64
  %15 = icmp slt i64 %indvars.iv.next, %14
  br i1 %15, label %9, label %clear_ref_dir.exit, !llvm.loop !26

clear_ref_dir.exit:                               ; preds = %9, %1, %4
  %.sink = phi i64 [ 32, %4 ], [ 48, %1 ], [ 32, %9 ]
  %16 = getelementptr inbounds nuw i8, ptr %0, i64 %.sink
  %17 = load ptr, ptr %16, align 8, !tbaa !17
  tail call void @free(ptr noundef %17) #11
  tail call void @free(ptr noundef nonnull %0) #11
  ret void
}